target datalayout = "e-m:e-p270:32:32-p271:32:32-p272:64:64-i64:64-i128:128-f80:128-n8:16:32:64-S128"
target triple = "x86_64-pc-linux-gnu"

%struct.jit_State = type { %struct.GCtrace, ptr, ptr, ptr, ptr, ptr, ptr, i32, i32, i32, i8, i8, %struct.IRType1, i8, %struct.FoldState, ptr, i32, i32, i32, i32, i32, i32, i32, [1 x i32], [5 x %union.TValue], [3 x %union.TValue], ptr, i32, i32, i32, i32, ptr, ptr, i32, i32, i8, ptr, i32, i32, i16, [101 x i16], [258 x i32], [15 x i32], [16 x ptr], [64 x %struct.HotPenalty], i32, [16 x %struct.BPropEntry], i32, %struct.ScEvEntry, ptr, i32, i32, i32, ptr, i32, i32, ptr, ptr, ptr, i64, i64, %union.TValue, ptr, i32, i32 }
%struct.GCtrace = type { %struct.GCRef, i8, i8, i16, i32, i32, %struct.GCRef, ptr, i32, i32, ptr, ptr, %struct.GCRef, %struct.MRef, i32, i32, ptr, i32, i16, i16, i16, i16, i16, i16, i16, i8, i8, i8, i8 }
%struct.GCRef = type { i64 }
%struct.MRef = type { i64 }
%struct.IRType1 = type { i8 }
%struct.FoldState = type { %union.IRIns, [2 x %union.IRIns], [2 x %union.IRIns] }
%union.IRIns = type { %struct.GCRef }
%struct.HotPenalty = type { %struct.MRef, i16, i16 }
%struct.BPropEntry = type { i16, i16, i32 }
%struct.ScEvEntry = type { %struct.MRef, i16, i16, i16, i16, %struct.IRType1, i8 }
%union.TValue = type { i64 }
%struct.RecordFFData = type { ptr, i64, i32 }
%struct.GG_State = type { %struct.lua_State, %struct.global_State, %struct.jit_State, [64 x i16], [243 x ptr], [57 x i32] }
%struct.lua_State = type { %struct.GCRef, i8, i8, i8, i8, %struct.MRef, %struct.GCRef, ptr, ptr, %struct.MRef, %struct.MRef, %struct.GCRef, %struct.GCRef, ptr, i32 }
%struct.global_State = type { ptr, ptr, %struct.GCState, %struct.GCstr, i8, i8, i8, i8, %struct.StrInternState, i32, %struct.GCRef, %struct.SBuf, %union.TValue, %union.TValue, %struct.Node, %union.TValue, %struct.GCupval, i32, i32, ptr, ptr, ptr, i32, i32, %struct.GCRef, %struct.MRef, %struct.MRef, %struct.PRNGState, [39 x %struct.GCRef] }
%struct.GCState = type { i64, i64, i8, i8, i8, i8, i32, %struct.GCRef, %struct.MRef, %struct.GCRef, %struct.GCRef, %struct.GCRef, %struct.GCRef, i64, i64, i32, i32, %struct.MRef }
%struct.GCstr = type { %struct.GCRef, i8, i8, i8, i8, i32, i32, i32 }
%struct.StrInternState = type { ptr, i32, i32, i32, i8, i8, i8, i8, i64 }
%struct.SBuf = type { ptr, ptr, ptr, %struct.MRef }
%struct.Node = type { %union.TValue, %union.TValue, %struct.MRef }
%struct.GCupval = type { %struct.GCRef, i8, i8, i8, i8, %union.anon, %struct.MRef, i32 }
%union.anon = type { %struct.anon.3 }
%struct.anon.3 = type { %struct.GCRef, %struct.GCRef }
%struct.PRNGState = type { [4 x i64] }
%struct.CType = type { i32, i32, i16, i16, %struct.GCRef }
%struct.anon = type { i16, i16, i16, i16 }
%struct.CTState = type { ptr, i32, i32, ptr, ptr, ptr, %struct.CCallback, [128 x i16] }
%struct.CCallback = type { [8 x %union.FPRCBArg], [8 x i64], ptr, ptr, ptr, i32, i32, i32 }
%union.FPRCBArg = type { double }

; Function Attrs: alwaysinline nounwind uwtable
define internal i32 @ctype_check(ptr noundef %0, i32 noundef %1) #2 {
  %3 = alloca ptr, align 8
  %4 = alloca i32, align 4
  store ptr %0, ptr %3, align 8, !tbaa !49
  store i32 %1, ptr %4, align 4, !tbaa !31
  %5 = load i32, ptr %4, align 4, !tbaa !31
  ret i32 %5
}

; Function Attrs: alwaysinline nounwind uwtable
define internal void @lj_ir_set_(ptr noundef %0, i16 noundef zeroext %1, i16 noundef zeroext %2, i16 noundef zeroext %3) #2 {
  %5 = alloca ptr, align 8
  %6 = alloca i16, align 2
  %7 = alloca i16, align 2
  %8 = alloca i16, align 2
  store ptr %0, ptr %5, align 8, !tbaa !4
  store i16 %1, ptr %6, align 2, !tbaa !70
  store i16 %2, ptr %7, align 2, !tbaa !70
  store i16 %3, ptr %8, align 2, !tbaa !70
  %9 = load i16, ptr %6, align 2, !tbaa !70
  %10 = load ptr, ptr %5, align 8, !tbaa !4
  %11 = getelementptr inbounds nuw %struct.jit_State, ptr %10, i32 0, i32 14
  %12 = getelementptr inbounds nuw %struct.FoldState, ptr %11, i32 0, i32 0
  %13 = getelementptr inbounds nuw %struct.anon, ptr %12, i32 0, i32 2
  store i16 %9, ptr %13, align 4, !tbaa !58
  %14 = load i16, ptr %7, align 2, !tbaa !70
  %15 = load ptr, ptr %5, align 8, !tbaa !4
  %16 = getelementptr inbounds nuw %struct.jit_State, ptr %15, i32 0, i32 14
  %17 = getelementptr inbounds nuw %struct.FoldState, ptr %16, i32 0, i32 0
  %18 = getelementptr inbounds nuw %struct.anon, ptr %17, i32 0, i32 0
  store i16 %14, ptr %18, align 8, !tbaa !58
  %19 = load i16, ptr %8, align 2, !tbaa !70
  %20 = load ptr, ptr %5, align 8, !tbaa !4
  %21 = getelementptr inbounds nuw %struct.jit_State, ptr %20, i32 0, i32 14
  %22 = getelementptr inbounds nuw %struct.FoldState, ptr %21, i32 0, i32 0
  %23 = getelementptr inbounds nuw %struct.anon, ptr %22, i32 0, i32 1
  store i16 %19, ptr %23, align 2, !tbaa !58
  ret void
}

; Function Attrs: alwaysinline nounwind uwtable
define internal ptr @ctype_get(ptr noundef %0, i32 noundef %1) #2 {
  %3 = alloca ptr, align 8
  %4 = alloca i32, align 4
  store ptr %0, ptr %3, align 8, !tbaa !49
  store i32 %1, ptr %4, align 4, !tbaa !31
  %5 = load ptr, ptr %3, align 8, !tbaa !49
  %6 = getelementptr inbounds nuw %struct.CTState, ptr %5, i32 0, i32 0
  %7 = load ptr, ptr %6, align 8, !tbaa !79
  %8 = load ptr, ptr %3, align 8, !tbaa !49
  %9 = load i32, ptr %4, align 4, !tbaa !31
  %10 = call i32 @ctype_check(ptr noundef %8, i32 noundef %9)
  %11 = zext i32 %10 to i64
  %12 = getelementptr inbounds nuw %struct.CType, ptr %7, i64 %11
  ret ptr %12
}

; Function Attrs: nounwind uwtable
define internal i32 @crec_toint(ptr noundef %0, ptr noundef %1, i32 noundef %2, ptr noundef %3) #0 {
  %5 = alloca ptr, align 8
  %6 = alloca ptr, align 8
  %7 = alloca i32, align 4
  %8 = alloca ptr, align 8
  store ptr %0, ptr %5, align 8, !tbaa !4
  store ptr %1, ptr %6, align 8, !tbaa !49
  store i32 %2, ptr %7, align 4, !tbaa !31
  store ptr %3, ptr %8, align 8, !tbaa !67
  %9 = load ptr, ptr %5, align 8, !tbaa !4
  %10 = load ptr, ptr %6, align 8, !tbaa !49
  %11 = call ptr @ctype_get(ptr noundef %10, i32 noundef 9)
  %12 = load i32, ptr %7, align 4, !tbaa !31
  %13 = load ptr, ptr %8, align 8, !tbaa !67
  %14 = call i32 @crec_ct_tv(ptr noundef %9, ptr noundef %11, i32 noundef 0, i32 noundef %12, ptr noundef %13)
  ret i32 %14
}

; Function Attrs: nounwind uwtable
define hidden void @recff_ffi_string(ptr noundef %0, ptr noundef %1) #0 {
  %3 = alloca ptr, align 8
  %4 = alloca ptr, align 8
  %5 = alloca ptr, align 8
  %6 = alloca i32, align 4
  %7 = alloca i32, align 4
  store ptr %0, ptr %3, align 8, !tbaa !4
  store ptr %1, ptr %4, align 8, !tbaa !9
  call void @llvm.lifetime.start.p0(i64 8, ptr %5) #7
  %8 = load ptr, ptr %3, align 8, !tbaa !4
  %9 = getelementptr inbounds i8, ptr %8, i64 -832
  %10 = getelementptr inbounds nuw %struct.GG_State, ptr %9, i32 0, i32 1
  %11 = getelementptr inbounds nuw %struct.global_State, ptr %10, i32 0, i32 26
  %12 = getelementptr inbounds nuw %struct.MRef, ptr %11, i32 0, i32 0
  %13 = load i64, ptr %12, align 8, !tbaa !38
  %14 = inttoptr i64 %13 to ptr
  store ptr %14, ptr %5, align 8, !tbaa !49
  call void @llvm.lifetime.start.p0(i64 4, ptr %6) #7
  %15 = load ptr, ptr %3, align 8, !tbaa !4
  %16 = getelementptr inbounds nuw %struct.jit_State, ptr %15, i32 0, i32 6
  %17 = load ptr, ptr %16, align 8, !tbaa !11
  %18 = getelementptr inbounds i32, ptr %17, i64 0
  %19 = load i32, ptr %18, align 4, !tbaa !31
  store i32 %19, ptr %6, align 4, !tbaa !31
  %20 = load i32, ptr %6, align 4, !tbaa !31
  %21 = icmp ne i32 %20, 0
  br i1 %21, label %22, label %74

22:                                               ; preds = %2
  call void @llvm.lifetime.start.p0(i64 4, ptr %7) #7
  %23 = load ptr, ptr %3, align 8, !tbaa !4
  %24 = getelementptr inbounds nuw %struct.jit_State, ptr %23, i32 0, i32 6
  %25 = load ptr, ptr %24, align 8, !tbaa !11
  %26 = getelementptr inbounds i32, ptr %25, i64 1
  %27 = load i32, ptr %26, align 4, !tbaa !31
  store i32 %27, ptr %7, align 4, !tbaa !31
  %28 = load i32, ptr %7, align 4, !tbaa !31
  %29 = and i32 %28, 520093696
  %30 = icmp eq i32 %29, 0
  br i1 %30, label %49, label %31

31:                                               ; preds = %22
  %32 = load ptr, ptr %3, align 8, !tbaa !4
  %33 = load ptr, ptr %5, align 8, !tbaa !49
  %34 = load i32, ptr %7, align 4, !tbaa !31
  %35 = load ptr, ptr %4, align 8, !tbaa !9
  %36 = getelementptr inbounds nuw %struct.RecordFFData, ptr %35, i32 0, i32 0
  %37 = load ptr, ptr %36, align 8, !tbaa !33
  %38 = getelementptr inbounds %union.TValue, ptr %37, i64 1
  %39 = call i32 @crec_toint(ptr noundef %32, ptr noundef %33, i32 noundef %34, ptr noundef %38)
  store i32 %39, ptr %7, align 4, !tbaa !31
  %40 = load ptr, ptr %3, align 8, !tbaa !4
  %41 = load ptr, ptr %5, align 8, !tbaa !49
  %42 = call ptr @ctype_get(ptr noundef %41, i32 noundef 18)
  %43 = load i32, ptr %6, align 4, !tbaa !31
  %44 = load ptr, ptr %4, align 8, !tbaa !9
  %45 = getelementptr inbounds nuw %struct.RecordFFData, ptr %44, i32 0, i32 0
  %46 = load ptr, ptr %45, align 8, !tbaa !33
  %47 = getelementptr inbounds %union.TValue, ptr %46, i64 0
  %48 = call i32 @crec_ct_tv(ptr noundef %40, ptr noundef %42, i32 noundef 0, i32 noundef %43, ptr noundef %47)
  store i32 %48, ptr %6, align 4, !tbaa !31
  br label %62

49:                                               ; preds = %22
  %50 = load ptr, ptr %3, align 8, !tbaa !4
  %51 = load ptr, ptr %5, align 8, !tbaa !49
  %52 = call ptr @ctype_get(ptr noundef %51, i32 noundef 19)
  %53 = load i32, ptr %6, align 4, !tbaa !31
  %54 = load ptr, ptr %4, align 8, !tbaa !9
  %55 = getelementptr inbounds nuw %struct.RecordFFData, ptr %54, i32 0, i32 0
  %56 = load ptr, ptr %55, align 8, !tbaa !33
  %57 = getelementptr inbounds %union.TValue, ptr %56, i64 0
  %58 = call i32 @crec_ct_tv(ptr noundef %50, ptr noundef %52, i32 noundef 0, i32 noundef %53, ptr noundef %57)
  store i32 %58, ptr %6, align 4, !tbaa !31
  %59 = load ptr, ptr %3, align 8, !tbaa !4
  %60 = load i32, ptr %6, align 4, !tbaa !31
  %61 = call i32 (ptr, i32, ...) @lj_ir_call(ptr noundef %59, i32 noundef 103, i32 noundef %60)
  store i32 %61, ptr %7, align 4, !tbaa !31
  br label %62

62:                                               ; preds = %49, %31
  %63 = load ptr, ptr %3, align 8, !tbaa !4
  %64 = load i32, ptr %6, align 4, !tbaa !31
  %65 = trunc i32 %64 to i16
  %66 = load i32, ptr %7, align 4, !tbaa !31
  %67 = trunc i32 %66 to i16
  call void @lj_ir_set_(ptr noundef %63, i16 noundef zeroext 20484, i16 noundef zeroext %65, i16 noundef zeroext %67)
  %68 = load ptr, ptr %3, align 8, !tbaa !4
  %69 = call i32 @lj_opt_fold(ptr noundef %68)
  %70 = load ptr, ptr %3, align 8, !tbaa !4
  %71 = getelementptr inbounds nuw %struct.jit_State, ptr %70, i32 0, i32 6
  %72 = load ptr, ptr %71, align 8, !tbaa !11
  %73 = getelementptr inbounds i32, ptr %72, i64 0
  store i32 %69, ptr %73, align 4, !tbaa !31
  call void @llvm.lifetime.end.p0(i64 4, ptr %7) #7
  br label %74

74:                                               ; preds = %62, %2
  call void @llvm.lifetime.end.p0(i64 4, ptr %6) #7
  call void @llvm.lifetime.end.p0(i64 8, ptr %5) #7
  ret void
}