; Function Attrs: nounwind uwtable
define hidden void @recff_ffi_string(ptr noundef %0, ptr noundef readonly captures(none) %1) local_unnamed_addr #0 {
  %3 = getelementptr inbounds i8, ptr %0, i64 -352
  %4 = load i64, ptr %3, align 8, !tbaa !34
  %5 = inttoptr i64 %4 to ptr
  %6 = getelementptr inbounds nuw i8, ptr %0, i64 160
  %7 = load ptr, ptr %6, align 8, !tbaa !4
  %8 = load i32, ptr %7, align 4, !tbaa !27
  %.not = icmp eq i32 %8, 0
  br i1 %.not, label %37, label %9

9:                                                ; preds = %2
  %10 = getelementptr inbounds nuw i8, ptr %7, i64 4
  %11 = load i32, ptr %10, align 4, !tbaa !27
  %12 = and i32 %11, 520093696
  %13 = icmp eq i32 %12, 0
  br i1 %13, label %23, label %14

14:                                               ; preds = %9
  %15 = load ptr, ptr %1, align 8, !tbaa !28
  %16 = getelementptr inbounds nuw i8, ptr %15, i64 8
  %.val = load ptr, ptr %5, align 8, !tbaa !45
  %17 = getelementptr inbounds nuw i8, ptr %.val, i64 216
  %18 = tail call fastcc i32 @crec_ct_tv(ptr noundef nonnull %0, ptr noundef nonnull %17, i32 noundef 0, i32 noundef %11, ptr noundef nonnull readonly %16)
  %19 = load ptr, ptr %5, align 8, !tbaa !45
  %20 = getelementptr inbounds nuw i8, ptr %19, i64 432
  %21 = load ptr, ptr %1, align 8, !tbaa !28
  %22 = tail call fastcc i32 @crec_ct_tv(ptr noundef nonnull %0, ptr noundef nonnull %20, i32 noundef 0, i32 noundef %8, ptr noundef %21)
  br label %29

23:                                               ; preds = %9
  %24 = load ptr, ptr %5, align 8, !tbaa !45
  %25 = getelementptr inbounds nuw i8, ptr %24, i64 456
  %26 = load ptr, ptr %1, align 8, !tbaa !28
  %27 = tail call fastcc i32 @crec_ct_tv(ptr noundef nonnull %0, ptr noundef nonnull %25, i32 noundef 0, i32 noundef %8, ptr noundef %26)
  %28 = tail call i32 (ptr, i32, ...) @lj_ir_call(ptr noundef nonnull %0, i32 noundef 103, i32 noundef %27) #8
  br label %29

29:                                               ; preds = %23, %14
  %.023 = phi i32 [ %27, %23 ], [ %22, %14 ]
  %.0 = phi i32 [ %28, %23 ], [ %18, %14 ]
  %30 = trunc i32 %.023 to i16
  %31 = trunc i32 %.0 to i16
  %32 = getelementptr inbounds nuw i8, ptr %0, i64 184
  %33 = getelementptr inbounds nuw i8, ptr %0, i64 188
  store i16 20484, ptr %33, align 4, !tbaa !31
  store i16 %30, ptr %32, align 8, !tbaa !31
  %34 = getelementptr inbounds nuw i8, ptr %0, i64 186
  store i16 %31, ptr %34, align 2, !tbaa !31
  %35 = tail call i32 @lj_opt_fold(ptr noundef nonnull %0) #8
  %36 = load ptr, ptr %6, align 8, !tbaa !4
  store i32 %35, ptr %36, align 4, !tbaa !27
  br label %37

37:                                               ; preds = %29, %2
  ret void
}